Certificate:
    Data:
        Version: 3 (0x2)
        Serial Number: 2 (0x2)
    Signature Algorithm: sha1WithRSAEncryption
        Issuer: C=DE, ST=Berlin, L=Berlin, O=Optiopay, CN=optiopay.com
        Validity
            Not Before: Apr  9 17:06:15 2018 GMT
            Not After : Apr  6 17:06:15 2028 GMT
        Subject: C=DE, ST=Berlin, O=Optiopay, CN=optiopay.com
        Subject Public Key Info:
            Public Key Algorithm: rsaEncryption
                Public-Key: (2048 bit)
                Modulus:
                    00:d3:c0:9b:17:27:e8:89:2a:5e:10:19:73:f7:58:
                    bf:e7:13:dc:3a:ff:90:4f:58:42:25:70:df:86:63:
                    31:31:a7:f6:0e:06:97:8f:c3:0a:61:a4:46:50:c7:
                    de:23:24:7f:f1:cd:07:7b:2f:15:23:57:a9:7f:67:
                    b2:68:82:64:54:de:1e:36:26:7e:c3:fa:25:de:6a:
                    c0:b5:1f:03:fe:ce:40:3d:bc:c8:50:a0:85:6d:61:
                    57:27:4d:4c:ef:35:bf:bc:f5:1f:79:53:99:14:a2:
                    22:63:d9:8f:3f:e2:a5:90:5f:8e:27:44:b4:bd:db:
                    1f:6e:b1:8d:00:ee:d5:bd:72:6e:82:ac:39:3d:10:
                    57:2f:b9:c5:b2:a8:65:bd:35:ca:bb:db:79:a2:ec:
                    a7:51:31:a4:af:5c:a7:4f:ff:fa:87:c2:93:17:59:
                    b7:58:4f:48:d6:37:cb:e6:73:99:a2:11:b3:a0:90:
                    1b:77:87:57:12:6a:92:b3:c2:30:e9:26:84:88:75:
                    74:6f:82:e2:95:99:6d:ca:cb:a3:5e:99:c1:3e:4b:
                    c1:58:9f:fc:63:5a:9f:24:6b:fd:f3:87:9d:83:9d:
                    71:33:a3:27:61:57:29:77:7d:aa:f8:7c:9f:0d:49:
                    54:58:75:4c:01:e1:a2:7d:18:71:ce:f1:33:e8:12:
                    b2:f9
                Exponent: 65537 (0x10001)
        X509v3 extensions:
            X509v3 Basic Constraints: 
                CA:FALSE
            X509v3 Subject Alternative Name: 
                DNS:localhost, DNS:0.0.0.0, IP Address:127.0.0.1
            X509v3 Subject Key Identifier: 
                4C:C9:28:B2:E2:B1:26:5B:98:61:71:94:DD:ED:5F:3E:4E:47:26:41
    Signature Algorithm: sha1WithRSAEncryption
         90:89:b4:96:8d:8b:52:db:a1:c6:8e:63:a9:86:82:e8:1f:cb:
         7b:f0:fe:6f:e4:28:3b:ea:dd:57:93:ee:0a:1b:e2:e6:e8:ed:
         d5:fe:98:38:e6:f7:0e:d4:29:38:e1:eb:d1:39:9d:ff:0c:86:
         3f:5b:a6:12:72:ee:a1:57:e6:2b:51:3d:57:de:99:7a:24:c4:
         24:6e:d5:74:32:f3:9f:f4:85:7c:5b:18:8e:19:26:90:2a:21:
         40:9a:ac:91:19:79:24:e0:6b:49:2e:af:16:c8:07:d2:61:8d:
         d0:a1:d3:7e:4a:46:82:12:fb:4f:ca:b3:a1:da:9f:43:01:9e:
         36:ab:a9:16:46:bf:78:c7:3b:9e:c1:87:6a:ca:e3:14:33:23:
         05:a3:9c:90:4c:9f:68:4d:3b:fd:95:c2:e2:9b:c6:e2:7c:11:
         c1:ae:e9:6d:2f:1f:5a:43:e5:b7:a3:e8:a4:c7:05:de:8f:f8:
         32:71:9a:4a:4d:89:7f:e0:01:c3:03:94:3d:03:1d:83:a9:39:
         7f:28:40:bc:b0:49:ae:5a:6b:a8:04:87:28:c0:e4:b1:26:3e:
         7e:1b:60:e2:d3:94:95:38:dd:ba:dd:b7:c5:ca:37:bd:29:94:
         13:86:83:23:42:58:cd:92:1e:01:23:3c:37:0c:a0:ff:22:74:
         ab:da:d7:90
-----BEGIN CERTIFICATE-----
MIIDbTCCAlWgAwIBAgIBAjANBgkqhkiG9w0BAQUFADBZMQswCQYDVQQGEwJERTEP
MA0GA1UECAwGQmVybGluMQ8wDQYDVQQHDAZCZXJsaW4xETAPBgNVBAoMCE9wdGlv
cGF5MRUwEwYDVQQDDAxvcHRpb3BheS5jb20wHhcNMTgwNDA5MTcwNjE1WhcNMjgw
NDA2MTcwNjE1WjBIMQswCQYDVQQGEwJERTEPMA0GA1UECAwGQmVybGluMREwDwYD
VQQKDAhPcHRpb3BheTEVMBMGA1UEAwwMb3B0aW9wYXkuY29tMIIBIjANBgkqhkiG
9w0BAQEFAAOCAQ8AMIIBCgKCAQEA08CbFyfoiSpeEBlz91i/5xPcOv+QT1hCJXDf
hmMxMaf2DgaXj8MKYaRGUMfeIyR/8c0Hey8VI1epf2eyaIJkVN4eNiZ+w/ol3mrA
tR8D/s5APbzIUKCFbWFXJ01M7zW/vPUfeVOZFKIiY9mPP+KlkF+OJ0S0vdsfbrGN
AO7VvXJugqw5PRBXL7nFsqhlvTXKu9t5ouynUTGkr1ynT//6h8KTF1m3WE9I1jfL
5nOZohGzoJAbd4dXEmqSs8Iw6SaEiHV0b4LilZltysujXpnBPkvBWJ/8Y1qfJGv9
84edg51xM6MnYVcpd32q+HyfDUlUWHVMAeGifRhxzvEz6BKy+QIDAQABo1EwTzAJ
BgNVHRMEAjAAMCMGA1UdEQQcMBqCCWxvY2FsaG9zdIIHMC4wLjAuMIcEfwAAATAd
BgNVHQ4EFgQUTMkosuKxJluYYXGU3e1fPk5HJkEwDQYJKoZIhvcNAQEFBQADggEB
AJCJtJaNi1LbocaOY6mGgugfy3vw/m/kKDvq3VeT7gob4ubo7dX+mDjm9w7UKTjh
69E5nf8Mhj9bphJy7qFX5itRPVfemXokxCRu1XQy85/0hXxbGI4ZJpAqIUCarJEZ
eSTga0kurxbIB9JhjdCh035KRoIS+0/Ks6Han0MBnjarqRZGv3jHO57Bh2rK4xQz
IwWjnJBMn2hNO/2VwuKbxuJ8EcGu6W0vH1pD5bej6KTHBd6P+DJxmkpNiX/gAcMD
lD0DHYOpOX8oQLywSa5aa6gEhyjA5LEmPn4bYOLTlJU43brdt8XKN70plBOGgyNC
WM2SHgEjPDcMoP8idKva15A=
-----END CERTIFICATE-----
