Certificate:
    Data:
        Version: 3 (0x2)
        Serial Number: 2 (0x2)
    Signature Algorithm: sha1WithRSAEncryption
        Issuer: C=DE, ST=Berlin, L=Berlin, O=Optiopay, CN=optiopay.com
        Validity
            Not Before: Aug 28 07:07:47 2018 GMT
            Not After : Aug 25 07:07:47 2028 GMT
        Subject: C=DE, ST=Berlin, O=Optiopay, CN=optiopay.com
        Subject Public Key Info:
            Public Key Algorithm: rsaEncryption
                Public-Key: (2048 bit)
                Modulus:
                    00:cd:c1:7f:06:42:90:7c:a3:dc:65:02:4d:83:b1:
                    ee:64:b1:69:0b:73:63:ca:79:4c:7b:e2:33:10:c9:
                    4a:41:83:6d:a4:6f:77:42:ab:00:55:6e:b7:64:80:
                    93:a1:2f:58:3c:06:9a:e4:83:38:55:dd:60:fd:ef:
                    a2:c5:0f:2f:b7:8c:c5:1a:95:fa:d9:ea:ec:cd:94:
                    ae:af:cb:ea:2b:53:dd:ab:1f:91:ec:83:4a:8c:ed:
                    18:f3:25:a9:3e:15:63:8f:9f:92:9f:53:d2:8a:91:
                    42:bd:ad:fa:07:56:86:80:59:b3:23:96:ce:d7:36:
                    8f:4d:6b:7f:3f:9b:0e:bf:ea:18:38:71:73:63:d3:
                    d8:01:fc:b1:f4:85:a7:7a:b2:13:2a:67:e7:ab:17:
                    72:97:a6:79:0f:1b:81:98:83:20:22:56:a0:44:c9:
                    bc:17:01:6c:2b:63:e2:55:bd:50:98:d1:1d:0d:c6:
                    92:0f:a1:a3:60:63:fc:82:94:3f:a8:e7:4f:a5:87:
                    f2:82:86:8d:df:0c:04:38:b7:a3:0a:e4:87:f4:6f:
                    cb:48:b6:cb:18:0c:f4:16:d5:b7:b4:cb:90:0e:ff:
                    af:62:85:94:03:ba:71:bb:4e:17:59:60:23:12:cd:
                    2c:9b:b1:21:6d:d5:10:2d:b9:04:52:a3:ef:67:aa:
                    af:3b
                Exponent: 65537 (0x10001)
        X509v3 extensions:
            X509v3 Basic Constraints: 
                CA:FALSE
            X509v3 Subject Alternative Name: 
                DNS:localhost, DNS:0.0.0.0, IP Address:127.0.0.1
            X509v3 Subject Key Identifier: 
                EF:40:EB:09:B2:FE:54:99:D0:F2:C0:FF:8D:F3:E6:C4:98:57:C5:13
    Signature Algorithm: sha1WithRSAEncryption
         11:71:a8:3c:2b:56:c7:ee:54:13:9c:ba:4b:d9:b9:db:07:48:
         e8:d6:be:0f:11:78:e2:bc:b8:10:66:6f:d8:26:55:cb:d6:b3:
         88:15:3d:a9:cd:63:4a:e6:e6:97:72:15:2e:f1:d2:5b:72:22:
         54:b3:4d:9b:7f:b6:56:24:df:c9:e9:bd:47:82:26:f1:bc:5e:
         58:da:6b:11:66:e4:d6:9e:65:b6:ae:dc:13:94:b8:00:49:b3:
         01:f3:7c:fb:5b:03:e7:ac:d4:df:ea:e9:18:e5:f6:6f:c0:5d:
         9f:81:fa:cf:ea:5f:94:02:87:67:c9:68:53:f1:7e:e4:33:68:
         70:01:e0:46:a7:bb:65:13:12:63:64:ab:91:52:b6:7f:ab:9e:
         f4:48:41:4e:6d:44:6c:22:7c:28:9c:67:90:31:1d:86:29:b0:
         f5:be:cd:63:c0:b4:fd:68:88:88:97:f1:cf:c4:60:37:d6:e8:
         bd:6f:bb:0a:68:98:7c:64:7d:09:ef:a0:db:91:2d:a2:80:31:
         ff:3c:8a:3c:2f:33:39:a1:83:c2:a5:cc:1c:9d:42:ce:1a:76:
         a2:e3:34:c5:c9:61:90:6b:07:0d:b2:40:14:ea:50:1d:71:3a:
         6d:ed:d2:ac:ca:55:2d:ba:f8:65:d4:0c:84:d0:dc:1e:53:0c:
         f3:00:0f:76
-----BEGIN CERTIFICATE-----
MIIDbTCCAlWgAwIBAgIBAjANBgkqhkiG9w0BAQUFADBZMQswCQYDVQQGEwJERTEP
MA0GA1UECAwGQmVybGluMQ8wDQYDVQQHDAZCZXJsaW4xETAPBgNVBAoMCE9wdGlv
cGF5MRUwEwYDVQQDDAxvcHRpb3BheS5jb20wHhcNMTgwODI4MDcwNzQ3WhcNMjgw
ODI1MDcwNzQ3WjBIMQswCQYDVQQGEwJERTEPMA0GA1UECAwGQmVybGluMREwDwYD
VQQKDAhPcHRpb3BheTEVMBMGA1UEAwwMb3B0aW9wYXkuY29tMIIBIjANBgkqhkiG
9w0BAQEFAAOCAQ8AMIIBCgKCAQEAzcF/BkKQfKPcZQJNg7HuZLFpC3NjynlMe+Iz
EMlKQYNtpG93QqsAVW63ZICToS9YPAaa5IM4Vd1g/e+ixQ8vt4zFGpX62erszZSu
r8vqK1Pdqx+R7INKjO0Y8yWpPhVjj5+Sn1PSipFCva36B1aGgFmzI5bO1zaPTWt/
P5sOv+oYOHFzY9PYAfyx9IWnerITKmfnqxdyl6Z5DxuBmIMgIlagRMm8FwFsK2Pi
Vb1QmNEdDcaSD6GjYGP8gpQ/qOdPpYfygoaN3wwEOLejCuSH9G/LSLbLGAz0FtW3
tMuQDv+vYoWUA7pxu04XWWAjEs0sm7EhbdUQLbkEUqPvZ6qvOwIDAQABo1EwTzAJ
BgNVHRMEAjAAMCMGA1UdEQQcMBqCCWxvY2FsaG9zdIIHMC4wLjAuMIcEfwAAATAd
BgNVHQ4EFgQU70DrCbL+VJnQ8sD/jfPmxJhXxRMwDQYJKoZIhvcNAQEFBQADggEB
ABFxqDwrVsfuVBOcukvZudsHSOjWvg8ReOK8uBBmb9gmVcvWs4gVPanNY0rm5pdy
FS7x0ltyIlSzTZt/tlYk38npvUeCJvG8XljaaxFm5NaeZbau3BOUuABJswHzfPtb
A+es1N/q6Rjl9m/AXZ+B+s/qX5QCh2fJaFPxfuQzaHAB4Eanu2UTEmNkq5FStn+r
nvRIQU5tRGwifCicZ5AxHYYpsPW+zWPAtP1oiIiX8c/EYDfW6L1vuwpomHxkfQnv
oNuRLaKAMf88ijwvMzmhg8KlzBydQs4adqLjNMXJYZBrBw2yQBTqUB1xOm3t0qzK
VS26+GXUDITQ3B5TDPMAD3Y=
-----END CERTIFICATE-----
