Certificate:
    Data:
        Version: 3 (0x2)
        Serial Number: 2 (0x2)
    Signature Algorithm: sha1WithRSAEncryption
        Issuer: C=DE, ST=Berlin, L=Berlin, O=Optiopay, CN=optiopay.com
        Validity
            Not Before: Mar  5 14:34:25 2018 GMT
            Not After : Mar  2 14:34:25 2028 GMT
        Subject: C=DE, ST=Berlin, O=Optiopay, CN=optiopay.com
        Subject Public Key Info:
            Public Key Algorithm: rsaEncryption
                Public-Key: (2048 bit)
                Modulus:
                    00:bb:b6:b9:2d:fa:85:4c:5e:f2:00:c5:40:9a:6b:
                    47:4d:15:5e:81:ab:f5:48:eb:f4:6c:3c:3b:28:21:
                    70:91:4e:5c:0e:cf:65:6d:2c:94:2f:c4:a8:06:67:
                    8b:9d:e7:45:c7:9d:34:da:ae:25:b8:92:0e:07:e1:
                    cd:15:bc:63:66:0a:aa:20:5f:1c:78:e9:a9:89:e0:
                    4e:b3:cf:c4:9c:14:40:f1:13:46:32:e3:80:df:a5:
                    5b:78:f2:05:16:73:e7:9d:75:86:ba:2e:3b:de:af:
                    ef:0b:61:c9:02:2c:a6:cd:c4:19:3c:b2:9c:c3:cf:
                    1e:1c:42:e0:2a:a6:53:fe:07:89:53:a3:56:3a:5b:
                    c1:04:44:de:91:1e:62:52:61:1f:ff:ec:5a:da:5b:
                    2c:36:3a:28:bf:52:3b:9d:d1:35:c7:13:d8:35:15:
                    6e:d0:e0:80:ca:df:a0:c1:3a:08:06:01:1f:69:e6:
                    cf:bc:27:2a:ac:45:cb:05:f7:68:cc:ac:95:15:6b:
                    84:49:74:a0:55:72:d0:b4:50:02:3d:ab:6e:95:d7:
                    03:1f:db:cc:00:8b:03:27:b8:3b:ad:4b:e6:d9:7a:
                    30:60:36:11:4a:4e:30:8a:5f:3f:76:29:5e:d6:fc:
                    58:2d:53:50:e8:78:13:31:6f:5e:a1:bd:da:c3:ef:
                    ca:a9
                Exponent: 65537 (0x10001)
        X509v3 extensions:
            X509v3 Basic Constraints: 
                CA:FALSE
            X509v3 Subject Alternative Name: 
                DNS:localhost, DNS:0.0.0.0, IP Address:127.0.0.1
            X509v3 Subject Key Identifier: 
                B8:A1:3F:0B:98:6A:B4:EA:8F:E1:68:C6:F0:A8:4D:7E:CB:5F:0C:C8
    Signature Algorithm: sha1WithRSAEncryption
         82:14:4e:00:18:45:b4:82:db:54:52:26:d8:58:d9:82:fb:12:
         a6:50:bf:2e:78:70:20:eb:4c:87:ac:e6:3b:58:39:67:ed:b7:
         b5:ed:d5:a1:dc:c5:e0:11:dd:67:51:53:4b:72:b3:9b:98:ce:
         8a:ce:fe:89:e2:e2:3c:10:e3:f6:21:1f:bc:ee:5c:c3:21:e7:
         63:9a:dc:08:f4:b5:1d:1a:92:dd:8f:d1:20:30:7c:6c:33:7c:
         8a:43:4c:83:5b:bb:2b:6f:f4:bf:e8:bb:21:97:e3:88:8d:79:
         1b:ed:1f:22:56:ed:9d:a8:cf:09:06:17:65:39:27:e1:f4:dd:
         b9:92:b8:d5:7a:af:4b:aa:70:61:a3:f6:40:79:90:b3:fe:39:
         fe:cf:c6:a1:dc:d7:ca:2b:4c:f3:d7:56:cf:31:07:45:3d:fc:
         84:fe:cb:ac:ff:0e:91:db:e9:d2:7f:ea:33:b2:19:da:7e:5b:
         50:20:54:95:ce:81:f4:21:31:97:76:40:a9:76:15:48:a8:c2:
         91:50:69:bc:dc:67:c4:59:63:fc:d9:7e:38:e4:2b:63:d8:e8:
         73:f7:54:44:c1:94:ac:5b:84:6f:52:a4:5a:de:e8:af:17:4a:
         ba:b1:11:0e:16:9b:30:58:b5:49:75:d0:33:53:c1:f9:14:ca:
         2d:57:8d:c9
-----BEGIN CERTIFICATE-----
MIIDbTCCAlWgAwIBAgIBAjANBgkqhkiG9w0BAQUFADBZMQswCQYDVQQGEwJERTEP
MA0GA1UECAwGQmVybGluMQ8wDQYDVQQHDAZCZXJsaW4xETAPBgNVBAoMCE9wdGlv
cGF5MRUwEwYDVQQDDAxvcHRpb3BheS5jb20wHhcNMTgwMzA1MTQzNDI1WhcNMjgw
MzAyMTQzNDI1WjBIMQswCQYDVQQGEwJERTEPMA0GA1UECAwGQmVybGluMREwDwYD
VQQKDAhPcHRpb3BheTEVMBMGA1UEAwwMb3B0aW9wYXkuY29tMIIBIjANBgkqhkiG
9w0BAQEFAAOCAQ8AMIIBCgKCAQEAu7a5LfqFTF7yAMVAmmtHTRVegav1SOv0bDw7
KCFwkU5cDs9lbSyUL8SoBmeLnedFx5002q4luJIOB+HNFbxjZgqqIF8ceOmpieBO
s8/EnBRA8RNGMuOA36VbePIFFnPnnXWGui473q/vC2HJAiymzcQZPLKcw88eHELg
KqZT/geJU6NWOlvBBETekR5iUmEf/+xa2lssNjoov1I7ndE1xxPYNRVu0OCAyt+g
wToIBgEfaebPvCcqrEXLBfdozKyVFWuESXSgVXLQtFACPatuldcDH9vMAIsDJ7g7
rUvm2XowYDYRSk4wil8/dile1vxYLVNQ6HgTMW9eob3aw+/KqQIDAQABo1EwTzAJ
BgNVHRMEAjAAMCMGA1UdEQQcMBqCCWxvY2FsaG9zdIIHMC4wLjAuMIcEfwAAATAd
BgNVHQ4EFgQUuKE/C5hqtOqP4WjG8KhNfstfDMgwDQYJKoZIhvcNAQEFBQADggEB
AIIUTgAYRbSC21RSJthY2YL7EqZQvy54cCDrTIes5jtYOWftt7Xt1aHcxeAR3WdR
U0tys5uYzorO/oni4jwQ4/YhH7zuXMMh52Oa3Aj0tR0akt2P0SAwfGwzfIpDTINb
uytv9L/ouyGX44iNeRvtHyJW7Z2ozwkGF2U5J+H03bmSuNV6r0uqcGGj9kB5kLP+
Of7PxqHc18orTPPXVs8xB0U9/IT+y6z/DpHb6dJ/6jOyGdp+W1AgVJXOgfQhMZd2
QKl2FUiowpFQabzcZ8RZY/zZfjjkK2PY6HP3VETBlKxbhG9SpFre6K8XSrqxEQ4W
mzBYtUl10DNTwfkUyi1Xjck=
-----END CERTIFICATE-----
